target datalayout = "e-m:e-p270:32:32-p271:32:32-p272:64:64-i64:64-i128:128-f80:128-n8:16:32:64-S128"
target triple = "x86_64-pc-linux-gnu"

%"class.gmx::ArrayRef" = type { %"struct.gmx::ArrayRefIter", %"struct.gmx::ArrayRefIter" }
%"struct.gmx::ArrayRefIter" = type { ptr }
%"class.std::__cxx11::basic_string" = type { %"struct.std::__cxx11::basic_string<char>::_Alloc_hider", i64, %union.anon }
%"struct.std::__cxx11::basic_string<char>::_Alloc_hider" = type { ptr }
%union.anon = type { i64, [8 x i8] }
%struct.t_interf = type { float, float }

@.str = private unnamed_addr constant [127 x i8] c"generated/home/dtcxzyw/WorkSpace/Projects/compilers/llvm-opt-benchmark/bench/gromacs/gromacs/src/gromacs/gmxana/powerspect.cpp\00", align 1
@.str.12 = private unnamed_addr constant [5 x i8] c"surf\00", align 1
@.str.13 = private unnamed_addr constant [8 x i8] c"surf[0]\00", align 1
@.str.14 = private unnamed_addr constant [8 x i8] c"surf[1]\00", align 1
@.str.15 = private unnamed_addr constant [11 x i8] c"surf[0][n]\00", align 1
@.str.16 = private unnamed_addr constant [11 x i8] c"surf[1][n]\00", align 1

; Function Attrs: mustprogress nounwind uwtable
define linkonce_odr noundef i64 @_ZNK3gmx12ArrayRefIterIKNSt7__cxx1112basic_stringIcSt11char_traitsIcESaIcEEEEmiES8_(ptr noundef nonnull align 8 dereferenceable(8) %0, ptr %1) #4 comdat align 2 {
  %3 = alloca %"struct.gmx::ArrayRefIter", align 8
  %4 = alloca ptr, align 8
  %5 = getelementptr inbounds nuw %"struct.gmx::ArrayRefIter", ptr %3, i32 0, i32 0
  store ptr %1, ptr %5, align 8
  store ptr %0, ptr %4, align 8, !tbaa !95
  %6 = load ptr, ptr %4, align 8
  %7 = getelementptr inbounds nuw %"struct.gmx::ArrayRefIter", ptr %6, i32 0, i32 0
  %8 = load ptr, ptr %7, align 8, !tbaa !97
  %9 = getelementptr inbounds nuw %"struct.gmx::ArrayRefIter", ptr %3, i32 0, i32 0
  %10 = load ptr, ptr %9, align 8, !tbaa !97
  %11 = ptrtoint ptr %8 to i64
  %12 = ptrtoint ptr %10 to i64
  %13 = sub i64 %11, %12
  %14 = sdiv exact i64 %13, 32
  ret i64 %14
}

; Function Attrs: mustprogress nounwind uwtable
define linkonce_odr noundef ptr @_ZNK3gmx12ArrayRefIterIKNSt7__cxx1112basic_stringIcSt11char_traitsIcESaIcEEEE4dataEv(ptr noundef nonnull align 8 dereferenceable(8) %0) #4 comdat align 2 {
  %2 = alloca ptr, align 8
  store ptr %0, ptr %2, align 8, !tbaa !95
  %3 = load ptr, ptr %2, align 8
  %4 = getelementptr inbounds nuw %"struct.gmx::ArrayRefIter", ptr %3, i32 0, i32 0
  %5 = load ptr, ptr %4, align 8, !tbaa !97
  ret ptr %5
}

; Function Attrs: mustprogress nounwind uwtable
define linkonce_odr noundef i64 @_ZNK3gmx8ArrayRefIKNSt7__cxx1112basic_stringIcSt11char_traitsIcESaIcEEEE4sizeEv(ptr noundef nonnull align 8 dereferenceable(16) %0) #4 comdat align 2 {
  %2 = alloca ptr, align 8
  %3 = alloca %"struct.gmx::ArrayRefIter", align 8
  store ptr %0, ptr %2, align 8, !tbaa !40
  %4 = load ptr, ptr %2, align 8
  %5 = getelementptr inbounds nuw %"class.gmx::ArrayRef", ptr %4, i32 0, i32 1
  %6 = getelementptr inbounds nuw %"class.gmx::ArrayRef", ptr %4, i32 0, i32 0
  call void @llvm.memcpy.p0.p0.i64(ptr align 8 %3, ptr align 8 %6, i64 8, i1 false)
  %7 = getelementptr inbounds nuw %"struct.gmx::ArrayRefIter", ptr %3, i32 0, i32 0
  %8 = load ptr, ptr %7, align 8
  %9 = call noundef i64 @_ZNK3gmx12ArrayRefIterIKNSt7__cxx1112basic_stringIcSt11char_traitsIcESaIcEEEEmiES8_(ptr noundef nonnull align 8 dereferenceable(8) %5, ptr %8) #15
  ret i64 %9
}

; Function Attrs: mustprogress nounwind uwtable
define linkonce_odr void @_ZN3gmx12ArrayRefIterIKNSt7__cxx1112basic_stringIcSt11char_traitsIcESaIcEEEEC2EPS7_(ptr noundef nonnull align 8 dereferenceable(8) %0, ptr noundef %1) unnamed_addr #4 comdat align 2 {
  %3 = alloca ptr, align 8
  %4 = alloca ptr, align 8
  store ptr %0, ptr %3, align 8, !tbaa !95
  store ptr %1, ptr %4, align 8, !tbaa !42
  %5 = load ptr, ptr %3, align 8
  %6 = getelementptr inbounds nuw %"struct.gmx::ArrayRefIter", ptr %5, i32 0, i32 0
  %7 = load ptr, ptr %4, align 8, !tbaa !42
  store ptr %7, ptr %6, align 8, !tbaa !97
  ret void
}

; Function Attrs: mustprogress nounwind uwtable
define linkonce_odr noundef ptr @_ZNK3gmx8ArrayRefIKNSt7__cxx1112basic_stringIcSt11char_traitsIcESaIcEEEE4dataEv(ptr noundef nonnull align 8 dereferenceable(16) %0) #4 comdat align 2 {
  %2 = alloca ptr, align 8
  store ptr %0, ptr %2, align 8, !tbaa !40
  %3 = load ptr, ptr %2, align 8
  %4 = getelementptr inbounds nuw %"class.gmx::ArrayRef", ptr %3, i32 0, i32 0
  %5 = call noundef ptr @_ZNK3gmx12ArrayRefIterIKNSt7__cxx1112basic_stringIcSt11char_traitsIcESaIcEEEE4dataEv(ptr noundef nonnull align 8 dereferenceable(8) %4) #15
  ret ptr %5
}

; Function Attrs: mustprogress uwtable
define linkonce_odr void @_ZN3gmx8ArrayRefIKNSt7__cxx1112basic_stringIcSt11char_traitsIcESaIcEEEEC2IRS8_vEEOT_(ptr noundef nonnull align 8 dereferenceable(16) %0, ptr noundef nonnull align 8 dereferenceable(16) %1) unnamed_addr #0 comdat align 2 {
  %3 = alloca ptr, align 8
  %4 = alloca ptr, align 8
  store ptr %0, ptr %3, align 8, !tbaa !40
  store ptr %1, ptr %4, align 8, !tbaa !40
  %5 = load ptr, ptr %3, align 8
  %6 = getelementptr inbounds nuw %"class.gmx::ArrayRef", ptr %5, i32 0, i32 0
  %7 = load ptr, ptr %4, align 8, !tbaa !40
  %8 = call noundef ptr @_ZNK3gmx8ArrayRefIKNSt7__cxx1112basic_stringIcSt11char_traitsIcESaIcEEEE4dataEv(ptr noundef nonnull align 8 dereferenceable(16) %7)
  call void @_ZN3gmx12ArrayRefIterIKNSt7__cxx1112basic_stringIcSt11char_traitsIcESaIcEEEEC2EPS7_(ptr noundef nonnull align 8 dereferenceable(8) %6, ptr noundef %8) #15
  %9 = getelementptr inbounds nuw %"class.gmx::ArrayRef", ptr %5, i32 0, i32 1
  %10 = load ptr, ptr %4, align 8, !tbaa !40
  %11 = call noundef ptr @_ZNK3gmx8ArrayRefIKNSt7__cxx1112basic_stringIcSt11char_traitsIcESaIcEEEE4dataEv(ptr noundef nonnull align 8 dereferenceable(16) %10)
  %12 = load ptr, ptr %4, align 8, !tbaa !40
  %13 = call noundef i64 @_ZNK3gmx8ArrayRefIKNSt7__cxx1112basic_stringIcSt11char_traitsIcESaIcEEEE4sizeEv(ptr noundef nonnull align 8 dereferenceable(16) %12)
  %14 = getelementptr inbounds nuw %"class.std::__cxx11::basic_string", ptr %11, i64 %13
  call void @_ZN3gmx12ArrayRefIterIKNSt7__cxx1112basic_stringIcSt11char_traitsIcESaIcEEEEC2EPS7_(ptr noundef nonnull align 8 dereferenceable(8) %9, ptr noundef %14) #15
  ret void
}

; Function Attrs: inlinehint mustprogress uwtable
define internal void @_ZL13gmx_snew_implIfEvPKcS1_iRPT_m(ptr noundef %0, ptr noundef %1, i32 noundef %2, ptr noundef nonnull align 8 dereferenceable(8) %3, i64 noundef %4) #5 {
  %6 = alloca ptr, align 8
  %7 = alloca ptr, align 8
  %8 = alloca i32, align 4
  %9 = alloca ptr, align 8
  %10 = alloca i64, align 8
  store ptr %0, ptr %6, align 8, !tbaa !30
  store ptr %1, ptr %7, align 8, !tbaa !30
  store i32 %2, ptr %8, align 4, !tbaa !11
  store ptr %3, ptr %9, align 8, !tbaa !15
  store i64 %4, ptr %10, align 8, !tbaa !36
  %11 = load ptr, ptr %6, align 8, !tbaa !30
  %12 = load ptr, ptr %7, align 8, !tbaa !30
  %13 = load i32, ptr %8, align 4, !tbaa !11
  %14 = load i64, ptr %10, align 8, !tbaa !36
  %15 = call noundef ptr @_Z11save_callocPKcS0_imm(ptr noundef %11, ptr noundef %12, i32 noundef %13, i64 noundef %14, i64 noundef 4)
  %16 = load ptr, ptr %9, align 8, !tbaa !15
  store ptr %15, ptr %16, align 8, !tbaa !17
  ret void
}

; Function Attrs: inlinehint mustprogress uwtable
define internal void @_ZL13gmx_snew_implIPfEvPKcS2_iRPT_m(ptr noundef %0, ptr noundef %1, i32 noundef %2, ptr noundef nonnull align 8 dereferenceable(8) %3, i64 noundef %4) #5 {
  %6 = alloca ptr, align 8
  %7 = alloca ptr, align 8
  %8 = alloca i32, align 4
  %9 = alloca ptr, align 8
  %10 = alloca i64, align 8
  store ptr %0, ptr %6, align 8, !tbaa !30
  store ptr %1, ptr %7, align 8, !tbaa !30
  store i32 %2, ptr %8, align 4, !tbaa !11
  store ptr %3, ptr %9, align 8, !tbaa !4
  store i64 %4, ptr %10, align 8, !tbaa !36
  %11 = load ptr, ptr %6, align 8, !tbaa !30
  %12 = load ptr, ptr %7, align 8, !tbaa !30
  %13 = load i32, ptr %8, align 4, !tbaa !11
  %14 = load i64, ptr %10, align 8, !tbaa !36
  %15 = call noundef ptr @_Z11save_callocPKcS0_imm(ptr noundef %11, ptr noundef %12, i32 noundef %13, i64 noundef %14, i64 noundef 8)
  %16 = load ptr, ptr %9, align 8, !tbaa !4
  store ptr %15, ptr %16, align 8, !tbaa !15
  ret void
}

; Function Attrs: inlinehint mustprogress uwtable
define internal void @_ZL13gmx_snew_implIPPfEvPKcS3_iRPT_m(ptr noundef %0, ptr noundef %1, i32 noundef %2, ptr noundef nonnull align 8 dereferenceable(8) %3, i64 noundef %4) #5 {
  %6 = alloca ptr, align 8
  %7 = alloca ptr, align 8
  %8 = alloca i32, align 4
  %9 = alloca ptr, align 8
  %10 = alloca i64, align 8
  store ptr %0, ptr %6, align 8, !tbaa !30
  store ptr %1, ptr %7, align 8, !tbaa !30
  store i32 %2, ptr %8, align 4, !tbaa !11
  store ptr %3, ptr %9, align 8, !tbaa !106
  store i64 %4, ptr %10, align 8, !tbaa !36
  %11 = load ptr, ptr %6, align 8, !tbaa !30
  %12 = load ptr, ptr %7, align 8, !tbaa !30
  %13 = load i32, ptr %8, align 4, !tbaa !11
  %14 = load i64, ptr %10, align 8, !tbaa !36
  %15 = call noundef ptr @_Z11save_callocPKcS0_imm(ptr noundef %11, ptr noundef %12, i32 noundef %13, i64 noundef %14, i64 noundef 8)
  %16 = load ptr, ptr %9, align 8, !tbaa !106
  store ptr %15, ptr %16, align 8, !tbaa !4
  ret void
}

; Function Attrs: mustprogress uwtable
define void @_Z18powerspectavg_intfPPP8t_interfS2_iiiN3gmx8ArrayRefIKNSt7__cxx1112basic_stringIcSt11char_traitsIcESaIcEEEEE(ptr noundef %0, ptr noundef %1, i32 noundef %2, i32 noundef %3, i32 noundef %4, ptr noundef byval(%"class.gmx::ArrayRef") align 8 %5) #0 {
  %7 = alloca ptr, align 8
  %8 = alloca ptr, align 8
  %9 = alloca i32, align 4
  %10 = alloca i32, align 4
  %11 = alloca i32, align 4
  %12 = alloca ptr, align 8
  %13 = alloca i32, align 4
  %14 = alloca i32, align 4
  %15 = alloca i32, align 4
  %16 = alloca %"class.gmx::ArrayRef", align 8
  store ptr %0, ptr %7, align 8, !tbaa !99
  store ptr %1, ptr %8, align 8, !tbaa !99
  store i32 %2, ptr %9, align 4, !tbaa !11
  store i32 %3, ptr %10, align 4, !tbaa !11
  store i32 %4, ptr %11, align 4, !tbaa !11
  call void @llvm.lifetime.start.p0(i64 8, ptr %12) #15
  call void @llvm.lifetime.start.p0(i64 4, ptr %13) #15
  %17 = load i32, ptr %10, align 4, !tbaa !11
  %18 = load i32, ptr %11, align 4, !tbaa !11
  %19 = mul nsw i32 %17, %18
  store i32 %19, ptr %13, align 4, !tbaa !11
  call void @llvm.lifetime.start.p0(i64 4, ptr %14) #15
  call void @llvm.lifetime.start.p0(i64 4, ptr %15) #15
  call void @_ZL13gmx_snew_implIPPfEvPKcS3_iRPT_m(ptr noundef @.str.12, ptr noundef @.str, i32 noundef 129, ptr noundef nonnull align 8 dereferenceable(8) %12, i64 noundef 2)
  %20 = load ptr, ptr %12, align 8, !tbaa !4
  %21 = getelementptr inbounds ptr, ptr %20, i64 0
  %22 = load i32, ptr %9, align 4, !tbaa !11
  %23 = sext i32 %22 to i64
  call void @_ZL13gmx_snew_implIPfEvPKcS2_iRPT_m(ptr noundef @.str.13, ptr noundef @.str, i32 noundef 130, ptr noundef nonnull align 8 dereferenceable(8) %21, i64 noundef %23)
  %24 = load ptr, ptr %12, align 8, !tbaa !4
  %25 = getelementptr inbounds ptr, ptr %24, i64 1
  %26 = load i32, ptr %9, align 4, !tbaa !11
  %27 = sext i32 %26 to i64
  call void @_ZL13gmx_snew_implIPfEvPKcS2_iRPT_m(ptr noundef @.str.14, ptr noundef @.str, i32 noundef 131, ptr noundef nonnull align 8 dereferenceable(8) %25, i64 noundef %27)
  store i32 0, ptr %15, align 4, !tbaa !11
  br label %28

28:                                               ; preds = %100, %6
  %29 = load i32, ptr %15, align 4, !tbaa !11
  %30 = load i32, ptr %9, align 4, !tbaa !11
  %31 = icmp slt i32 %29, %30
  br i1 %31, label %32, label %103

32:                                               ; preds = %28
  %33 = load ptr, ptr %12, align 8, !tbaa !4
  %34 = getelementptr inbounds ptr, ptr %33, i64 0
  %35 = load ptr, ptr %34, align 8, !tbaa !15
  %36 = load i32, ptr %15, align 4, !tbaa !11
  %37 = sext i32 %36 to i64
  %38 = getelementptr inbounds ptr, ptr %35, i64 %37
  %39 = load i32, ptr %13, align 4, !tbaa !11
  %40 = sext i32 %39 to i64
  call void @_ZL13gmx_snew_implIfEvPKcS1_iRPT_m(ptr noundef @.str.15, ptr noundef @.str, i32 noundef 134, ptr noundef nonnull align 8 dereferenceable(8) %38, i64 noundef %40)
  %41 = load ptr, ptr %12, align 8, !tbaa !4
  %42 = getelementptr inbounds ptr, ptr %41, i64 1
  %43 = load ptr, ptr %42, align 8, !tbaa !15
  %44 = load i32, ptr %15, align 4, !tbaa !11
  %45 = sext i32 %44 to i64
  %46 = getelementptr inbounds ptr, ptr %43, i64 %45
  %47 = load i32, ptr %13, align 4, !tbaa !11
  %48 = sext i32 %47 to i64
  call void @_ZL13gmx_snew_implIfEvPKcS1_iRPT_m(ptr noundef @.str.16, ptr noundef @.str, i32 noundef 135, ptr noundef nonnull align 8 dereferenceable(8) %46, i64 noundef %48)
  store i32 0, ptr %14, align 4, !tbaa !11
  br label %49

49:                                               ; preds = %96, %32
  %50 = load i32, ptr %14, align 4, !tbaa !11
  %51 = load i32, ptr %13, align 4, !tbaa !11
  %52 = icmp slt i32 %50, %51
  br i1 %52, label %53, label %99

53:                                               ; preds = %49
  %54 = load ptr, ptr %7, align 8, !tbaa !99
  %55 = load i32, ptr %15, align 4, !tbaa !11
  %56 = sext i32 %55 to i64
  %57 = getelementptr inbounds ptr, ptr %54, i64 %56
  %58 = load ptr, ptr %57, align 8, !tbaa !100
  %59 = load i32, ptr %14, align 4, !tbaa !11
  %60 = sext i32 %59 to i64
  %61 = getelementptr inbounds ptr, ptr %58, i64 %60
  %62 = load ptr, ptr %61, align 8, !tbaa !101
  %63 = getelementptr inbounds nuw %struct.t_interf, ptr %62, i32 0, i32 0
  %64 = load float, ptr %63, align 4, !tbaa !102
  %65 = load ptr, ptr %12, align 8, !tbaa !4
  %66 = getelementptr inbounds ptr, ptr %65, i64 0
  %67 = load ptr, ptr %66, align 8, !tbaa !15
  %68 = load i32, ptr %15, align 4, !tbaa !11
  %69 = sext i32 %68 to i64
  %70 = getelementptr inbounds ptr, ptr %67, i64 %69
  %71 = load ptr, ptr %70, align 8, !tbaa !17
  %72 = load i32, ptr %14, align 4, !tbaa !11
  %73 = sext i32 %72 to i64
  %74 = getelementptr inbounds float, ptr %71, i64 %73
  store float %64, ptr %74, align 4, !tbaa !25
  %75 = load ptr, ptr %8, align 8, !tbaa !99
  %76 = load i32, ptr %15, align 4, !tbaa !11
  %77 = sext i32 %76 to i64
  %78 = getelementptr inbounds ptr, ptr %75, i64 %77
  %79 = load ptr, ptr %78, align 8, !tbaa !100
  %80 = load i32, ptr %14, align 4, !tbaa !11
  %81 = sext i32 %80 to i64
  %82 = getelementptr inbounds ptr, ptr %79, i64 %81
  %83 = load ptr, ptr %82, align 8, !tbaa !101
  %84 = getelementptr inbounds nuw %struct.t_interf, ptr %83, i32 0, i32 0
  %85 = load float, ptr %84, align 4, !tbaa !102
  %86 = load ptr, ptr %12, align 8, !tbaa !4
  %87 = getelementptr inbounds ptr, ptr %86, i64 1
  %88 = load ptr, ptr %87, align 8, !tbaa !15
  %89 = load i32, ptr %15, align 4, !tbaa !11
  %90 = sext i32 %89 to i64
  %91 = getelementptr inbounds ptr, ptr %88, i64 %90
  %92 = load ptr, ptr %91, align 8, !tbaa !17
  %93 = load i32, ptr %14, align 4, !tbaa !11
  %94 = sext i32 %93 to i64
  %95 = getelementptr inbounds float, ptr %92, i64 %94
  store float %85, ptr %95, align 4, !tbaa !25
  br label %96

96:                                               ; preds = %53
  %97 = load i32, ptr %14, align 4, !tbaa !11
  %98 = add nsw i32 %97, 1
  store i32 %98, ptr %14, align 4, !tbaa !11
  br label %49, !llvm.loop !104

99:                                               ; preds = %49
  br label %100

100:                                              ; preds = %99
  %101 = load i32, ptr %15, align 4, !tbaa !11
  %102 = add nsw i32 %101, 1
  store i32 %102, ptr %15, align 4, !tbaa !11
  br label %28, !llvm.loop !105

103:                                              ; preds = %28
  %104 = load ptr, ptr %12, align 8, !tbaa !4
  %105 = load i32, ptr %9, align 4, !tbaa !11
  %106 = load i32, ptr %10, align 4, !tbaa !11
  %107 = load i32, ptr %11, align 4, !tbaa !11
  call void @_ZN3gmx8ArrayRefIKNSt7__cxx1112basic_stringIcSt11char_traitsIcESaIcEEEEC2IRS8_vEEOT_(ptr noundef nonnull align 8 dereferenceable(16) %16, ptr noundef nonnull align 8 dereferenceable(16) %5)
  %108 = getelementptr inbounds nuw { ptr, ptr }, ptr %16, i32 0, i32 0
  %109 = load ptr, ptr %108, align 8
  %110 = getelementptr inbounds nuw { ptr, ptr }, ptr %16, i32 0, i32 1
  %111 = load ptr, ptr %110, align 8
  call void @_Z13powerspectavgPPPfiiiN3gmx8ArrayRefIKNSt7__cxx1112basic_stringIcSt11char_traitsIcESaIcEEEEE(ptr noundef %104, i32 noundef %105, i32 noundef %106, i32 noundef %107, ptr %109, ptr %111)
  call void @llvm.lifetime.end.p0(i64 4, ptr %15) #15
  call void @llvm.lifetime.end.p0(i64 4, ptr %14) #15
  call void @llvm.lifetime.end.p0(i64 4, ptr %13) #15
  call void @llvm.lifetime.end.p0(i64 8, ptr %12) #15
  ret void
}