; Function Attrs: mustprogress uwtable
define void @_Z18powerspectavg_intfPPP8t_interfS2_iiiN3gmx8ArrayRefIKNSt7__cxx1112basic_stringIcSt11char_traitsIcESaIcEEEEE(ptr noundef readonly captures(none) %0, ptr noundef readonly captures(none) %1, i32 noundef %2, i32 noundef %3, i32 noundef %4, ptr noundef readonly byval(%"class.gmx::ArrayRef") align 8 captures(none) %5) local_unnamed_addr #4 {
  %7 = mul i32 %4, %3
  %8 = tail call noundef ptr @_Z11save_callocPKcS0_imm(ptr noundef nonnull @.str.12, ptr noundef nonnull @.str, i32 noundef 129, i64 noundef 2, i64 noundef 8)
  %9 = sext i32 %2 to i64
  %10 = tail call noundef ptr @_Z11save_callocPKcS0_imm(ptr noundef nonnull @.str.13, ptr noundef nonnull @.str, i32 noundef 130, i64 noundef range(i64 -2147483648, 2147483648) %9, i64 noundef 8)
  store ptr %10, ptr %8, align 8, !tbaa !9
  %11 = getelementptr inbounds nuw i8, ptr %8, i64 8
  %12 = tail call noundef ptr @_Z11save_callocPKcS0_imm(ptr noundef nonnull @.str.14, ptr noundef nonnull @.str, i32 noundef 131, i64 noundef range(i64 -2147483648, 2147483648) %9, i64 noundef 8)
  store ptr %12, ptr %11, align 8, !tbaa !9
  %13 = icmp sgt i32 %2, 0
  br i1 %13, label %.lr.ph37, label %._crit_edge38

.lr.ph37:                                         ; preds = %6
  %14 = sext i32 %7 to i64
  %15 = icmp sgt i32 %7, 0
  %wide.trip.count50 = zext nneg i32 %2 to i64
  br i1 %15, label %.lr.ph.us.preheader, label %.lr.ph37.split

.lr.ph.us.preheader:                              ; preds = %.lr.ph37
  %.pre = load ptr, ptr %8, align 8, !tbaa !9
  %wide.trip.count45 = zext nneg i32 %7 to i64
  br label %.lr.ph.us

.lr.ph.us:                                        ; preds = %.lr.ph.us.preheader, %._crit_edge.us
  %16 = phi ptr [ %.pre, %.lr.ph.us.preheader ], [ %24, %._crit_edge.us ]
  %indvars.iv47 = phi i64 [ 0, %.lr.ph.us.preheader ], [ %indvars.iv.next48, %._crit_edge.us ]
  %17 = getelementptr inbounds nuw ptr, ptr %16, i64 %indvars.iv47
  %18 = tail call noundef ptr @_Z11save_callocPKcS0_imm(ptr noundef nonnull @.str.15, ptr noundef nonnull @.str, i32 noundef 134, i64 noundef range(i64 -2147483648, 2147483648) %14, i64 noundef 4)
  store ptr %18, ptr %17, align 8, !tbaa !12
  %19 = load ptr, ptr %11, align 8, !tbaa !9
  %20 = getelementptr inbounds nuw ptr, ptr %19, i64 %indvars.iv47
  %21 = tail call noundef ptr @_Z11save_callocPKcS0_imm(ptr noundef nonnull @.str.16, ptr noundef nonnull @.str, i32 noundef 135, i64 noundef range(i64 -2147483648, 2147483648) %14, i64 noundef 4)
  store ptr %21, ptr %20, align 8, !tbaa !12
  %22 = getelementptr inbounds nuw ptr, ptr %0, i64 %indvars.iv47
  %23 = load ptr, ptr %22, align 8, !tbaa !31
  %24 = load ptr, ptr %8, align 8, !tbaa !9
  %25 = getelementptr inbounds nuw ptr, ptr %24, i64 %indvars.iv47
  %26 = load ptr, ptr %25, align 8, !tbaa !12
  %27 = getelementptr inbounds nuw ptr, ptr %1, i64 %indvars.iv47
  %28 = load ptr, ptr %27, align 8, !tbaa !31
  %29 = load ptr, ptr %11, align 8, !tbaa !9
  %30 = getelementptr inbounds nuw ptr, ptr %29, i64 %indvars.iv47
  %31 = load ptr, ptr %30, align 8, !tbaa !12
  br label %32

32:                                               ; preds = %.lr.ph.us, %32
  %indvars.iv42 = phi i64 [ 0, %.lr.ph.us ], [ %indvars.iv.next43, %32 ]
  %33 = getelementptr inbounds nuw ptr, ptr %23, i64 %indvars.iv42
  %34 = load ptr, ptr %33, align 8, !tbaa !32
  %35 = load float, ptr %34, align 4, !tbaa !33
  %36 = getelementptr inbounds nuw float, ptr %26, i64 %indvars.iv42
  store float %35, ptr %36, align 4, !tbaa !14
  %37 = getelementptr inbounds nuw ptr, ptr %28, i64 %indvars.iv42
  %38 = load ptr, ptr %37, align 8, !tbaa !32
  %39 = load float, ptr %38, align 4, !tbaa !33
  %40 = getelementptr inbounds nuw float, ptr %31, i64 %indvars.iv42
  store float %39, ptr %40, align 4, !tbaa !14
  %indvars.iv.next43 = add nuw nsw i64 %indvars.iv42, 1
  %exitcond46.not = icmp eq i64 %indvars.iv.next43, %wide.trip.count45
  br i1 %exitcond46.not, label %._crit_edge.us, label %32, !llvm.loop !35

._crit_edge.us:                                   ; preds = %32
  %indvars.iv.next48 = add nuw nsw i64 %indvars.iv47, 1
  %exitcond51.not = icmp eq i64 %indvars.iv.next48, %wide.trip.count50
  br i1 %exitcond51.not, label %._crit_edge38, label %.lr.ph.us, !llvm.loop !36

.lr.ph37.split:                                   ; preds = %.lr.ph37, %.lr.ph37.split
  %indvars.iv = phi i64 [ %indvars.iv.next, %.lr.ph37.split ], [ 0, %.lr.ph37 ]
  %41 = load ptr, ptr %8, align 8, !tbaa !9
  %42 = getelementptr inbounds nuw ptr, ptr %41, i64 %indvars.iv
  %43 = tail call noundef ptr @_Z11save_callocPKcS0_imm(ptr noundef nonnull @.str.15, ptr noundef nonnull @.str, i32 noundef 134, i64 noundef range(i64 -2147483648, 2147483648) %14, i64 noundef 4)
  store ptr %43, ptr %42, align 8, !tbaa !12
  %44 = load ptr, ptr %11, align 8, !tbaa !9
  %45 = getelementptr inbounds nuw ptr, ptr %44, i64 %indvars.iv
  %46 = tail call noundef ptr @_Z11save_callocPKcS0_imm(ptr noundef nonnull @.str.16, ptr noundef nonnull @.str, i32 noundef 135, i64 noundef range(i64 -2147483648, 2147483648) %14, i64 noundef 4)
  store ptr %46, ptr %45, align 8, !tbaa !12
  %indvars.iv.next = add nuw nsw i64 %indvars.iv, 1
  %exitcond.not = icmp eq i64 %indvars.iv.next, %wide.trip.count50
  br i1 %exitcond.not, label %._crit_edge38, label %.lr.ph37.split, !llvm.loop !36

._crit_edge38:                                    ; preds = %.lr.ph37.split, %._crit_edge.us, %6
  %47 = load ptr, ptr %5, align 8, !tbaa !37
  tail call void @_Z13powerspectavgPPPfiiiN3gmx8ArrayRefIKNSt7__cxx1112basic_stringIcSt11char_traitsIcESaIcEEEEE(ptr noundef nonnull %8, i32 noundef %2, i32 noundef %3, i32 noundef %4, ptr %47, ptr poison)
  ret void
}